	.text
	.file	"program.c"
	.file	1 "/home/over/build/abra_lang/ex_handle/global_ex_table" "program.c"
	.globl	unused$212              # -- Begin function unused$212
	.p2align	4, 0x90
	.type	unused$212,@function
unused$212:                             # @"unused$212"
.Lfunc_begin0:
	.loc	1 7 0                   # program.c:7:0
	.cfi_startproc
# %bb.0:
	.loc	1 8 1 prologue_end      # program.c:8:1
	retq
.Ltmp0:
.Lfunc_end0:
	.size	unused$212, .Lfunc_end0-unused$212
	.cfi_endproc
                                        # -- End function
	.globl	bar                     # -- Begin function bar
	.p2align	4, 0x90
	.type	bar,@function
bar:                                    # @bar
.Lfunc_begin1:
	.loc	1 10 0                  # program.c:10:0
	.cfi_startproc
# %bb.0:
	pushq	%rax
	.cfi_def_cfa_offset 16
	#DEBUG_VALUE: bar:x <- $edi
.Ltmp1:
	.loc	1 11 8 prologue_end     # program.c:11:8
	movl	%edi, 4(%rsp)           # 4-byte Spill
.Ltmp2:
	#DEBUG_VALUE: bar:x <- [DW_OP_plus_uconst 4] [$rsp+0]
	callq	rand
	#APP
.Leh_label1:
	#NO_APP
	#APP
	movw	%ax, .Leh_label1-bar
	#NO_APP
	#APP
	.short	.Leh_label1-bar
	#NO_APP
	movl	%eax, (%rsp)            # 4-byte Spill
.Ltmp3:
.Ltmp4:                                 # Block address taken
# %bb.1:                                # %eh_branch1
	#DEBUG_VALUE: bar:x <- [DW_OP_plus_uconst 4] [$rsp+0]
	.loc	1 11 19 is_stmt 0       # program.c:11:19
	movl	(%rsp), %eax            # 4-byte Reload
	andl	$1, %eax
	cmpl	$0, %eax
.Ltmp5:
	.loc	1 11 8                  # program.c:11:8
	jne	.LBB1_4
.Ltmp6:
# %bb.2:
	#DEBUG_VALUE: bar:x <- [DW_OP_plus_uconst 4] [$rsp+0]
	.loc	1 12 2 is_stmt 1        # program.c:12:2
	movabsq	$.L.str, %rdi
	callq	raise
	#APP
.Leh_label2:
	#NO_APP
	#APP
	movw	%ax, .Leh_label2-bar
	#NO_APP
	#APP
	.short	.Leh_label2-bar
	#NO_APP
.Ltmp7:
# %bb.3:                                # %eh_branch2
	#DEBUG_VALUE: bar:x <- [DW_OP_plus_uconst 4] [$rsp+0]
	jmp	.LBB1_4
.Ltmp8:
.LBB1_4:
	#DEBUG_VALUE: bar:x <- [DW_OP_plus_uconst 4] [$rsp+0]
	.loc	1 14 14                 # program.c:14:14
	movl	4(%rsp), %eax           # 4-byte Reload
	imull	%eax, %eax
	.loc	1 14 5 is_stmt 0        # program.c:14:5
	popq	%rcx
.Ltmp9:
	.cfi_def_cfa_offset 8
	retq
.Ltmp10:
.Lfunc_end1:
	.size	bar, .Lfunc_end1-bar
	.cfi_endproc
                                        # -- End function
	.globl	baz                     # -- Begin function baz
	.p2align	4, 0x90
	.type	baz,@function
baz:                                    # @baz
.Lfunc_begin2:
	.loc	1 17 0 is_stmt 1        # program.c:17:0
	.cfi_startproc
# %bb.0:
	subq	$24, %rsp
	.cfi_def_cfa_offset 32
	#DEBUG_VALUE: baz:x <- $edi
	#DEBUG_VALUE: baz:y <- $esi
.Ltmp11:
	#DEBUG_VALUE: bar:x <- $edi
	.loc	1 11 8 prologue_end     # program.c:11:8
	movl	%edi, 20(%rsp)          # 4-byte Spill
.Ltmp12:
	#DEBUG_VALUE: baz:x <- [DW_OP_plus_uconst 20] [$rsp+0]
	#DEBUG_VALUE: bar:x <- [DW_OP_plus_uconst 20] [$rsp+0]
	movl	%esi, 16(%rsp)          # 4-byte Spill
.Ltmp13:
	#DEBUG_VALUE: baz:y <- [DW_OP_plus_uconst 16] [$rsp+0]
	callq	rand
	#APP
.Leh_label3:
	#NO_APP
	#APP
	movw	%ax, .Leh_label3-baz
	#NO_APP
	#APP
	.short	.Leh_label3-baz
	#NO_APP
	movl	%eax, 12(%rsp)          # 4-byte Spill
.Ltmp14:
.Ltmp15:                                # Block address taken
# %bb.1:                                # %eh_branch3
	#DEBUG_VALUE: baz:y <- [DW_OP_plus_uconst 16] [$rsp+0]
	#DEBUG_VALUE: bar:x <- [DW_OP_plus_uconst 20] [$rsp+0]
	#DEBUG_VALUE: baz:x <- [DW_OP_plus_uconst 20] [$rsp+0]
	.loc	1 11 19 is_stmt 0       # program.c:11:19
	movl	12(%rsp), %eax          # 4-byte Reload
	andl	$1, %eax
	cmpl	$0, %eax
.Ltmp16:
	.loc	1 11 8                  # program.c:11:8
	jne	.LBB2_4
.Ltmp17:
# %bb.2:
	#DEBUG_VALUE: baz:y <- [DW_OP_plus_uconst 16] [$rsp+0]
	#DEBUG_VALUE: bar:x <- [DW_OP_plus_uconst 20] [$rsp+0]
	#DEBUG_VALUE: baz:x <- [DW_OP_plus_uconst 20] [$rsp+0]
	.loc	1 12 2 is_stmt 1        # program.c:12:2
	movabsq	$.L.str, %rdi
	callq	raise
	#APP
.Leh_label4:
	#NO_APP
	#APP
	movw	%ax, .Leh_label4-baz
	#NO_APP
	#APP
	.short	.Leh_label4-baz
	#NO_APP
.Ltmp18:
# %bb.3:                                # %eh_branch4
	#DEBUG_VALUE: baz:y <- [DW_OP_plus_uconst 16] [$rsp+0]
	#DEBUG_VALUE: bar:x <- [DW_OP_plus_uconst 20] [$rsp+0]
	#DEBUG_VALUE: baz:x <- [DW_OP_plus_uconst 20] [$rsp+0]
	jmp	.LBB2_4
.Ltmp19:
.LBB2_4:
	#DEBUG_VALUE: baz:y <- [DW_OP_plus_uconst 16] [$rsp+0]
	#DEBUG_VALUE: bar:x <- [DW_OP_plus_uconst 20] [$rsp+0]
	#DEBUG_VALUE: baz:x <- [DW_OP_plus_uconst 20] [$rsp+0]
	.loc	1 14 14                 # program.c:14:14
	movl	20(%rsp), %eax          # 4-byte Reload
	imull	%eax, %eax
.Ltmp20:
	.loc	1 18 19                 # program.c:18:19
	movl	16(%rsp), %ecx          # 4-byte Reload
	addl	%ecx, %eax
	.loc	1 18 5 is_stmt 0        # program.c:18:5
	addq	$24, %rsp
.Ltmp21:
	.cfi_def_cfa_offset 8
	retq
.Ltmp22:
.Lfunc_end2:
	.size	baz, .Lfunc_end2-baz
	.cfi_endproc
                                        # -- End function
	.globl	_main                   # -- Begin function _main
	.p2align	4, 0x90
	.type	_main,@function
_main:                                  # @_main
.Lfunc_begin3:
	.loc	1 21 0 is_stmt 1        # program.c:21:0
	.cfi_startproc
# %bb.0:
	pushq	%rax
	.cfi_def_cfa_offset 16
.Ltmp23:
	#DEBUG_VALUE: baz:x <- 2
	#DEBUG_VALUE: baz:y <- 2
	#DEBUG_VALUE: bar:x <- 2
	.loc	1 11 8 prologue_end     # program.c:11:8
	callq	rand
	#APP
.Leh_label5:
	#NO_APP
	#APP
	movw	%ax, .Leh_label5-_main
	#NO_APP
	#APP
	.short	.Leh_label5-_main
	#NO_APP
	movl	%eax, 4(%rsp)           # 4-byte Spill
.Ltmp24:                                # Block address taken
# %bb.1:                                # %eh_branch5
	.loc	1 11 19 is_stmt 0       # program.c:11:19
	movl	4(%rsp), %eax           # 4-byte Reload
	andl	$1, %eax
	cmpl	$0, %eax
.Ltmp25:
	.loc	1 11 8                  # program.c:11:8
	jne	.LBB3_4
# %bb.2:
.Ltmp26:
	.loc	1 12 2 is_stmt 1        # program.c:12:2
	movabsq	$.L.str, %rdi
	callq	raise
	#APP
.Leh_label6:
	#NO_APP
	#APP
	movw	%ax, .Leh_label6-_main
	#NO_APP
	#APP
	.short	.Leh_label6-_main
	#NO_APP
# %bb.3:                                # %eh_branch6
	jmp	.LBB3_4
.Ltmp27:
.LBB3_4:
	.loc	1 0 2 is_stmt 0         # program.c:0:2
	xorl	%eax, %eax
	.loc	1 23 5 is_stmt 1        # program.c:23:5
	popq	%rcx
	.cfi_def_cfa_offset 8
	retq
.Ltmp28:
.Lfunc_end3:
	.size	_main, .Lfunc_end3-_main
	.cfi_endproc
                                        # -- End function
	.globl	main                    # -- Begin function main
	.p2align	4, 0x90
	.type	main,@function
main:                                   # @main
.Lfunc_begin4:
	.loc	1 25 0                  # program.c:25:0
	.cfi_startproc
# %bb.0:
	pushq	%rax
	.cfi_def_cfa_offset 16
.Ltmp29:
	#DEBUG_VALUE: baz:x <- 2
	#DEBUG_VALUE: baz:y <- 2
	#DEBUG_VALUE: bar:x <- 2
	.loc	1 11 8 prologue_end     # program.c:11:8
	callq	rand
	#APP
.Leh_label7:
	#NO_APP
	#APP
	movw	%ax, .Leh_label7-main
	#NO_APP
	#APP
	.short	.Leh_label7-main
	#NO_APP
	movl	%eax, 4(%rsp)           # 4-byte Spill
.Ltmp30:                                # Block address taken
# %bb.1:                                # %eh_branch7
	.loc	1 11 19 is_stmt 0       # program.c:11:19
	movl	4(%rsp), %eax           # 4-byte Reload
	andl	$1, %eax
	cmpl	$0, %eax
.Ltmp31:
	.loc	1 11 8                  # program.c:11:8
	jne	.LBB4_4
# %bb.2:
.Ltmp32:
	.loc	1 12 2 is_stmt 1        # program.c:12:2
	movabsq	$.L.str, %rdi
	callq	raise
	#APP
.Leh_label8:
	#NO_APP
	#APP
	movw	%ax, .Leh_label8-main
	#NO_APP
	#APP
	.short	.Leh_label8-main
	#NO_APP
# %bb.3:                                # %eh_branch8
	jmp	.LBB4_4
.Ltmp33:
.LBB4_4:
	.loc	1 0 2 is_stmt 0         # program.c:0:2
	xorl	%eax, %eax
	.loc	1 26 5 is_stmt 1        # program.c:26:5
	popq	%rcx
	.cfi_def_cfa_offset 8
	retq
.Ltmp34:
.Lfunc_end4:
	.size	main, .Lfunc_end4-main
	.cfi_endproc
                                        # -- End function
	.type	tbl.bar,@object         # @tbl.bar
	.section	.rodata,"a",@progbits
	.globl	tbl.bar
	.p2align	3
tbl.bar:
	.short	.Ltmp4-bar
	.short	0                       # 0x0
	.size	tbl.bar, 4

	.type	tbl.baz,@object         # @tbl.baz
	.globl	tbl.baz
	.p2align	3
tbl.baz:
	.short	.Ltmp15-baz
	.short	0                       # 0x0
	.size	tbl.baz, 4

	.type	tbl._main,@object       # @tbl._main
	.globl	tbl._main
	.p2align	3
tbl._main:
	.short	.Ltmp24-_main
	.short	0                       # 0x0
	.size	tbl._main, 4

	.type	tbl.main,@object        # @tbl.main
	.globl	tbl.main
	.p2align	3
tbl.main:
	.short	.Ltmp30-main
	.short	0                       # 0x0
	.size	tbl.main, 4

	.type	XX_MARKER_XX,@object    # @XX_MARKER_XX
	.data
	.globl	XX_MARKER_XX
	.p2align	2
XX_MARKER_XX:
	.long	9000                    # 0x2328
	.size	XX_MARKER_XX, 4

	.type	.L.str,@object          # @.str
	.section	.rodata.str1.1,"aMS",@progbits,1
.L.str:
	.asciz	"an error has occured"
	.size	.L.str, 21

	.section	".note.GNU-stack","",@progbits
	.addrsig
	.addrsig_sym tbl.bar
	.addrsig_sym tbl.baz
	.addrsig_sym tbl._main
	.addrsig_sym tbl.main